(dp0
S'text_box_300/conv5/conv5_2/weights_1'
p1
F1.0
sS'text_box_300/conv8_box/conv_cls/weights_1'
p2
F1.0
sS'text_box_300/conv2/conv2_1/weights_1'
p3
F0.0
sS'text_box_300/conv4_box/conv_loc/biases_1'
p4
F2.0
sS'text_box_300/conv9/conv3x3/biases_1'
p5
F2.0
sS'text_box_300/conv1/conv1_1/biases_1'
p6
F0.0
sS'text_box_300/conv10_box/conv_cls/weights_1'
p7
F1.0
sS'text_box_300/conv9_box/conv_loc/weights_1'
p8
F1.0
sS'text_box_300/conv4_box/conv_cls/weights_1'
p9
F1.0
sS'text_box_300/conv8_box/conv_loc/weights_1'
p10
F1.0
sS'text_box_300/conv8/conv1x1/biases_1'
p11
F2.0
sS'text_box_300/conv1/conv1_2/biases_1'
p12
F0.0
sS'text_box_300/conv6/weights_1'
p13
F1.0
sS'text_box_300/conv4/conv4_1/weights_1'
p14
F1.0
sS'text_box_300/conv4/conv4_1/biases_1'
p15
F2.0
sS'text_box_300/conv10/conv3x3/weights_1'
p16
F1.0
sS'text_box_300/conv8/conv3x3/weights_1'
p17
F1.0
sS'text_box_300/conv9_box/conv_cls/weights_1'
p18
F1.0
sS'text_box_300/conv4_box/conv_loc/weights_1'
p19
F1.0
sS'text_box_300/global/conv1x1/biases_1'
p20
F2.0
sS'text_box_300/conv4/conv4_2/biases_1'
p21
F2.0
sS'text_box_300/conv9/conv1x1/weights_1'
p22
F1.0
sS'text_box_300/conv9_box/conv_cls/biases_1'
p23
F2.0
sS'text_box_300/conv6/biases_1'
p24
F2.0
sS'text_box_300/conv10/conv3x3/biases_1'
p25
F2.0
sS'text_box_300/conv10/conv1x1/biases_1'
p26
F2.0
sS'text_box_300/conv7_box/conv_cls/weights_1'
p27
F1.0
sS'text_box_300/conv2/conv2_2/biases_1'
p28
F0.0
sS'text_box_300/conv8/conv3x3/biases_1'
p29
F2.0
sS'text_box_300/conv10/conv1x1/weights_1'
p30
F1.0
sS'text_box_300/conv10_box/conv_loc/weights_1'
p31
F1.0
sS'text_box_300/conv7/biases_1'
p32
F2.0
sS'text_box_300/global_box/conv_cls/weights_1'
p33
F1.0
sS'text_box_300/conv7/weights_1'
p34
F1.0
sS'text_box_300/conv8_box/conv_loc/biases_1'
p35
F2.0
sS'text_box_300/conv9/conv3x3/weights_1'
p36
F1.0
sS'text_box_300/conv7_box/conv_cls/biases_1'
p37
F2.0
sS'text_box_300/conv4_box/conv_cls/biases_1'
p38
F2.0
sS'text_box_300/conv5/conv5_2/biases_1'
p39
F2.0
sS'text_box_300/conv2/conv2_1/biases_1'
p40
F0.0
sS'text_box_300/global/conv3x3/weights_1'
p41
F1.0
sS'text_box_300/conv7_box/conv_loc/weights_1'
p42
F1.0
sS'text_box_300/global_box/conv_loc/weights_1'
p43
F1.0
sS'text_box_300/conv1/conv1_2/weights_1'
p44
F0.0
sS'text_box_300/conv3/conv3_2/weights_1'
p45
F1.0
sS'text_box_300/conv3/conv3_1/weights_1'
p46
F1.0
sS'text_box_300/conv10_box/conv_loc/biases_1'
p47
F2.0
sS'text_box_300/conv2/conv2_2/weights_1'
p48
F0.0
sS'text_box_300/global_box/conv_cls/biases_1'
p49
F2.0
sS'text_box_300/conv8_box/conv_cls/biases_1'
p50
F2.0
sS'text_box_300/conv9_box/conv_loc/biases_1'
p51
F2.0
sS'text_box_300/conv5/conv5_1/weights_1'
p52
F1.0
sS'text_box_300/conv4/conv4_2/weights_1'
p53
F1.0
sS'text_box_300/global/conv1x1/weights_1'
p54
F1.0
sS'text_box_300/conv9/conv1x1/biases_1'
p55
F2.0
sS'text_box_300/global_box/conv_loc/biases_1'
p56
F2.0
sS'text_box_300/conv4/conv4_3/biases_1'
p57
F2.0
sS'text_box_300/conv5/conv5_3/weights_1'
p58
F1.0
sS'text_box_300/conv1/conv1_1/weights_1'
p59
F0.0
sS'text_box_300/conv3/conv3_1/biases_1'
p60
F2.0
sS'text_box_300/conv4/conv4_3/weights_1'
p61
F1.0
sS'text_box_300/conv5/conv5_3/biases_1'
p62
F2.0
sS'text_box_300/conv8/conv1x1/weights_1'
p63
F1.0
sS'text_box_300/conv5/conv5_1/biases_1'
p64
F2.0
sS'text_box_300/conv3/conv3_2/biases_1'
p65
F2.0
sS'text_box_300/global/conv3x3/biases_1'
p66
F2.0
sS'text_box_300/conv7_box/conv_loc/biases_1'
p67
F2.0
sS'text_box_300/conv10_box/conv_cls/biases_1'
p68
F2.0
s.